; Function Attrs: mustprogress noreturn uwtable
define void @_ZN2cv4cuda6StreamC2ERKNS_3PtrINS0_6GpuMat9AllocatorEEE(ptr noundef nonnull align 8 captures(none) dereferenceable(16) initializes((0, 16)) %0, ptr nonnull readnone align 8 captures(none) %1) unnamed_addr #0 align 2 personality ptr @__gxx_personality_v0 {
  tail call void @llvm.memset.p0.i64(ptr noundef nonnull align 8 dereferenceable(16) %0, i8 0, i64 16, i1 false)
  invoke fastcc void @_ZL13throw_no_cudav() #11
          to label %3 unwind label %4

3:                                                ; preds = %2
  unreachable

4:                                                ; preds = %2
  %5 = landingpad { ptr, i32 }
          cleanup
  %6 = getelementptr inbounds nuw i8, ptr %0, i64 8
  %7 = load ptr, ptr %6, align 8, !tbaa !3
  %.not.i.i = icmp eq ptr %7, null
  br i1 %.not.i.i, label %_ZNSt12__shared_ptrIN2cv4cuda6Stream4ImplELN9__gnu_cxx12_Lock_policyE2EED2Ev.exit, label %8

8:                                                ; preds = %4
  %9 = getelementptr inbounds nuw i8, ptr %7, i64 8
  %10 = load atomic i64, ptr %9 acquire, align 8
  %11 = icmp eq i64 %10, 4294967297
  %12 = trunc i64 %10 to i32
  br i1 %11, label %13, label %21

13:                                               ; preds = %8
  store i32 0, ptr %9, align 8, !tbaa !9
  %14 = getelementptr inbounds nuw i8, ptr %7, i64 12
  store i32 0, ptr %14, align 4, !tbaa !12
  %15 = load ptr, ptr %7, align 8, !tbaa !13
  %16 = getelementptr inbounds nuw i8, ptr %15, i64 16
  %17 = load ptr, ptr %16, align 8
  tail call void %17(ptr noundef nonnull align 8 dereferenceable(16) %7) #12
  %18 = load ptr, ptr %7, align 8, !tbaa !13
  %19 = getelementptr inbounds nuw i8, ptr %18, i64 24
  %20 = load ptr, ptr %19, align 8
  tail call void %20(ptr noundef nonnull align 8 dereferenceable(16) %7) #12
  br label %_ZNSt12__shared_ptrIN2cv4cuda6Stream4ImplELN9__gnu_cxx12_Lock_policyE2EED2Ev.exit

21:                                               ; preds = %8
  %22 = load i8, ptr @__libc_single_threaded, align 1, !tbaa !15
  %.not.i.i.i = icmp eq i8 %22, 0
  br i1 %.not.i.i.i, label %25, label %23

23:                                               ; preds = %21
  %24 = add nsw i32 %12, -1
  store i32 %24, ptr %9, align 4, !tbaa !16
  br label %_ZN9__gnu_cxx27__exchange_and_add_dispatchEPii.exit.i.i.i

25:                                               ; preds = %21
  %26 = atomicrmw volatile add ptr %9, i32 -1 acq_rel, align 4
  br label %_ZN9__gnu_cxx27__exchange_and_add_dispatchEPii.exit.i.i.i

_ZN9__gnu_cxx27__exchange_and_add_dispatchEPii.exit.i.i.i: ; preds = %25, %23
  %.0.i.i.i.i = phi i32 [ %12, %23 ], [ %26, %25 ]
  %27 = icmp eq i32 %.0.i.i.i.i, 1
  br i1 %27, label %28, label %_ZNSt12__shared_ptrIN2cv4cuda6Stream4ImplELN9__gnu_cxx12_Lock_policyE2EED2Ev.exit, !prof !17

28:                                               ; preds = %_ZN9__gnu_cxx27__exchange_and_add_dispatchEPii.exit.i.i.i
  tail call void @_ZNSt16_Sp_counted_baseILN9__gnu_cxx12_Lock_policyE2EE24_M_release_last_use_coldEv(ptr noundef nonnull align 8 dereferenceable(16) %7) #12
  br label %_ZNSt12__shared_ptrIN2cv4cuda6Stream4ImplELN9__gnu_cxx12_Lock_policyE2EED2Ev.exit

_ZNSt12__shared_ptrIN2cv4cuda6Stream4ImplELN9__gnu_cxx12_Lock_policyE2EED2Ev.exit: ; preds = %4, %13, %_ZN9__gnu_cxx27__exchange_and_add_dispatchEPii.exit.i.i.i, %28
  resume { ptr, i32 } %5
}